target datalayout = "e-m:e-p270:32:32-p271:32:32-p272:64:64-i64:64-i128:128-f80:128-n8:16:32:64-S128"
target triple = "x86_64-pc-linux-gnu"

; Function Attrs: inlinehint nounwind uwtable
define internal i64 @malloc_write_fd_syscall(i32 noundef %0, ptr noundef %1, i64 noundef %2) #1 {
  %4 = alloca i32, align 4
  %5 = alloca ptr, align 8
  %6 = alloca i64, align 8
  %7 = alloca i64, align 8
  store i32 %0, ptr %4, align 4, !tbaa !10
  store ptr %1, ptr %5, align 8, !tbaa !4
  store i64 %2, ptr %6, align 8, !tbaa !12
  call void @llvm.lifetime.start.p0(i64 8, ptr %7) #10
  %8 = load i32, ptr %4, align 4, !tbaa !10
  %9 = load ptr, ptr %5, align 8, !tbaa !4
  %10 = load i64, ptr %6, align 8, !tbaa !12
  %11 = call i64 (i64, ...) @syscall(i64 noundef 1, i32 noundef %8, ptr noundef %9, i64 noundef %10) #10
  store i64 %11, ptr %7, align 8, !tbaa !12
  %12 = load i64, ptr %7, align 8, !tbaa !12
  call void @llvm.lifetime.end.p0(i64 8, ptr %7) #10
  ret i64 %12
}

; Function Attrs: inlinehint nounwind uwtable
define internal i64 @malloc_write_fd(i32 noundef %0, ptr noundef %1, i64 noundef %2) #1 {
  %4 = alloca i64, align 8
  %5 = alloca i32, align 4
  %6 = alloca ptr, align 8
  %7 = alloca i64, align 8
  %8 = alloca i64, align 8
  %9 = alloca i64, align 8
  %10 = alloca i32, align 4
  store i32 %0, ptr %5, align 4, !tbaa !10
  store ptr %1, ptr %6, align 8, !tbaa !4
  store i64 %2, ptr %7, align 8, !tbaa !12
  call void @llvm.lifetime.start.p0(i64 8, ptr %8) #10
  store i64 0, ptr %8, align 8, !tbaa !12
  br label %11

11:                                               ; preds = %31, %3
  call void @llvm.lifetime.start.p0(i64 8, ptr %9) #10
  %12 = load i32, ptr %5, align 4, !tbaa !10
  %13 = load ptr, ptr %6, align 8, !tbaa !4
  %14 = load i64, ptr %8, align 8, !tbaa !12
  %15 = getelementptr inbounds nuw i8, ptr %13, i64 %14
  %16 = load i64, ptr %7, align 8, !tbaa !12
  %17 = load i64, ptr %8, align 8, !tbaa !12
  %18 = sub i64 %16, %17
  %19 = call i64 @malloc_write_fd_syscall(i32 noundef %12, ptr noundef %15, i64 noundef %18)
  store i64 %19, ptr %9, align 8, !tbaa !12
  %20 = load i64, ptr %9, align 8, !tbaa !12
  %21 = icmp slt i64 %20, 0
  br i1 %21, label %22, label %24

22:                                               ; preds = %11
  %23 = load i64, ptr %9, align 8, !tbaa !12
  store i64 %23, ptr %4, align 8
  store i32 1, ptr %10, align 4
  br label %28

24:                                               ; preds = %11
  %25 = load i64, ptr %9, align 8, !tbaa !12
  %26 = load i64, ptr %8, align 8, !tbaa !12
  %27 = add i64 %26, %25
  store i64 %27, ptr %8, align 8, !tbaa !12
  store i32 0, ptr %10, align 4
  br label %28

28:                                               ; preds = %24, %22
  call void @llvm.lifetime.end.p0(i64 8, ptr %9) #10
  %29 = load i32, ptr %10, align 4
  switch i32 %29, label %37 [
    i32 0, label %30
  ]

30:                                               ; preds = %28
  br label %31

31:                                               ; preds = %30
  %32 = load i64, ptr %8, align 8, !tbaa !12
  %33 = load i64, ptr %7, align 8, !tbaa !12
  %34 = icmp ult i64 %32, %33
  br i1 %34, label %11, label %35, !llvm.loop !14

35:                                               ; preds = %31
  %36 = load i64, ptr %8, align 8, !tbaa !12
  store i64 %36, ptr %4, align 8
  store i32 1, ptr %10, align 4
  br label %37

37:                                               ; preds = %35, %28
  call void @llvm.lifetime.end.p0(i64 8, ptr %8) #10
  %38 = load i64, ptr %4, align 8
  ret i64 %38
}

; Function Attrs: nounwind uwtable
define hidden void @je_wrtmessage(ptr noundef %0, ptr noundef %1) #0 {
  %3 = alloca ptr, align 8
  %4 = alloca ptr, align 8
  store ptr %0, ptr %3, align 8, !tbaa !4
  store ptr %1, ptr %4, align 8, !tbaa !8
  %5 = load ptr, ptr %4, align 8, !tbaa !8
  %6 = load ptr, ptr %4, align 8, !tbaa !8
  %7 = call i64 @strlen(ptr noundef %6) #9
  %8 = call i64 @malloc_write_fd(i32 noundef 2, ptr noundef %5, i64 noundef %7)
  ret void
}